; Function Attrs: mustprogress nounwind uwtable
define hidden void @_ZN12ZDriverMajor2gcERK14ZDriverRequest(ptr noundef nonnull align 8 dereferenceable(1264) %0, ptr noundef nonnull align 4 dereferenceable(12) %1) local_unnamed_addr #1 align 2 {
  %3 = alloca %class.TimeInstant, align 8
  %4 = alloca %class.ZGCIdMajor, align 1
  %5 = alloca %class.ZDriverScopeMajor, align 8
  %6 = getelementptr inbounds i8, ptr %0, i64 1064
  call void @_ZN17ZDriverScopeMajorC2ERK14ZDriverRequestP17ConcurrentGCTimer(ptr noundef nonnull align 8 dereferenceable(112) %5, ptr noundef nonnull align 4 dereferenceable(12) %1, ptr noundef nonnull %6)
  call void @_ZN12ZDriverMajor13collect_youngERK14ZDriverRequest(ptr noundef nonnull align 8 dereferenceable(1264) %0, ptr noundef nonnull align 4 dereferenceable(12) %1)
  %7 = load volatile i8, ptr @_ZN6ZAbort13_should_abortE, align 1
  %8 = trunc i8 %7 to i1
  br i1 %8, label %13, label %9

9:                                                ; preds = %2
  call void @llvm.lifetime.start.p0(i64 1, ptr nonnull %4)
  %10 = getelementptr inbounds i8, ptr %0, i64 912
  %11 = load i32, ptr %10, align 8
  call void @_ZN10ZGCIdMajorC1Ejc(ptr noundef nonnull align 1 dereferenceable(1) %4, i32 noundef %11, i8 noundef signext 79) #13
  %12 = load ptr, ptr @_ZN11ZGeneration4_oldE, align 8
  call void @_ZN14ZGenerationOld7collectEP17ConcurrentGCTimer(ptr noundef nonnull align 64 dereferenceable(6720) %12, ptr noundef nonnull %6) #13
  call void @_ZN10ZGCIdMajorD1Ev(ptr noundef nonnull align 1 dereferenceable(1) %4) #13
  call void @llvm.lifetime.end.p0(i64 1, ptr nonnull %4)
  br label %13

13:                                               ; preds = %2, %9
  %14 = call noundef ptr @_ZN14ZCollectedHeap4heapEv() #13
  call void @_ZN13CollectedHeap30update_capacity_and_used_at_gcEv(ptr noundef nonnull align 8 dereferenceable(104) %14) #13
  %15 = call noundef ptr @_ZN14ZCollectedHeap4heapEv() #13
  call void @_ZN13CollectedHeap36record_whole_heap_examined_timestampEv(ptr noundef nonnull align 8 dereferenceable(104) %15) #13
  %16 = getelementptr inbounds i8, ptr %5, i64 72
  call void @_ZN26ZServiceabilityCycleTracerD1Ev(ptr noundef nonnull align 8 dereferenceable(40) %16) #13
  %17 = getelementptr inbounds i8, ptr %5, i64 40
  call void @llvm.lifetime.start.p0(i64 16, ptr nonnull %3)
  %18 = call { i64, i64 } @_ZN29CompositeElapsedCounterSource3nowEv() #13
  %19 = extractvalue { i64, i64 } %18, 0
  store i64 %19, ptr %3, align 8
  %20 = getelementptr inbounds i8, ptr %3, i64 8
  %21 = extractvalue { i64, i64 } %18, 1
  store i64 %21, ptr %20, align 8
  %22 = getelementptr inbounds i8, ptr %5, i64 48
  %23 = load ptr, ptr %22, align 8
  %24 = load ptr, ptr %17, align 8
  %25 = getelementptr inbounds i8, ptr %5, i64 56
  %26 = load ptr, ptr %23, align 8
  %27 = getelementptr inbounds i8, ptr %26, i64 8
  %28 = load ptr, ptr %27, align 8
  call void %28(ptr noundef nonnull align 8 dereferenceable(48) %23, ptr noundef %24, ptr noundef nonnull align 8 dereferenceable(16) %25, ptr noundef nonnull align 8 dereferenceable(16) %3) #13
  call void @llvm.lifetime.end.p0(i64 16, ptr nonnull %3)
  %29 = getelementptr inbounds i8, ptr %5, i64 16
  %30 = getelementptr inbounds i8, ptr %5, i64 32
  %31 = load ptr, ptr %30, align 8
  %32 = getelementptr inbounds i8, ptr %31, i64 920
  store i32 11, ptr %32, align 8
  %33 = load ptr, ptr %29, align 8
  %34 = getelementptr inbounds i8, ptr %5, i64 24
  %35 = load i32, ptr %34, align 8
  call void @_ZN13CollectedHeap12set_gc_causeEN7GCCause5CauseE(ptr noundef nonnull align 8 dereferenceable(104) %33, i32 noundef %35) #13
  %36 = getelementptr inbounds i8, ptr %5, i64 4
  call void @_ZN8GCIdMarkD1Ev(ptr noundef nonnull align 4 dereferenceable(4) %36) #13
  ret void
}